target datalayout = "e-m:e-p270:32:32-p271:32:32-p272:64:64-i64:64-i128:128-f80:128-n8:16:32:64-S128"
target triple = "x86_64-pc-linux-gnu"

%struct.RedisModuleCtx = type { ptr, ptr, ptr, ptr, ptr, i32, i32, i32, ptr, i32, ptr, ptr, ptr, ptr, i64, ptr }
%struct.client = type { i64, i64, ptr, i8, i8, i8, i8, i32, ptr, ptr, ptr, ptr, ptr, i64, i64, i32, ptr, i32, i32, ptr, i64, ptr, ptr, ptr, ptr, ptr, i32, i32, i64, ptr, i64, ptr, i64, i64, i64, i32, ptr, i64, i64, i32, i32, i32, i32, i64, i64, ptr, i64, i64, i64, i64, i64, i64, i64, i64, [41 x i8], i32, ptr, i32, i32, i64, %struct.multiState, %struct.blockingState, i64, ptr, ptr, ptr, ptr, ptr, ptr, ptr, ptr, ptr, ptr, ptr, ptr, ptr, ptr, i64, ptr, i64, i32, ptr, ptr, ptr, i64, %struct.listNode, i64, i64, i32, i64, ptr }
%struct.multiState = type { ptr, i32, i32, i32, i64, i32 }
%struct.blockingState = type { i32, i64, i32, ptr, i32, i32, i64, ptr, ptr, i64 }
%struct.listNode = type { ptr, ptr, ptr }

; Function Attrs: nounwind uwtable
define dso_local i32 @RM_RedactClientCommandArgument(ptr noundef %0, i32 noundef %1) #0 {
  %3 = alloca i32, align 4
  %4 = alloca ptr, align 8
  %5 = alloca i32, align 4
  store ptr %0, ptr %4, align 8, !tbaa !13
  store i32 %1, ptr %5, align 4, !tbaa !29
  %6 = load ptr, ptr %4, align 8, !tbaa !13
  %7 = icmp ne ptr %6, null
  br i1 %7, label %8, label %24

8:                                                ; preds = %2
  %9 = load ptr, ptr %4, align 8, !tbaa !13
  %10 = getelementptr inbounds nuw %struct.RedisModuleCtx, ptr %9, i32 0, i32 2
  %11 = load ptr, ptr %10, align 8, !tbaa !106
  %12 = icmp ne ptr %11, null
  br i1 %12, label %13, label %24

13:                                               ; preds = %8
  %14 = load i32, ptr %5, align 4, !tbaa !29
  %15 = icmp sle i32 %14, 0
  br i1 %15, label %24, label %16

16:                                               ; preds = %13
  %17 = load ptr, ptr %4, align 8, !tbaa !13
  %18 = getelementptr inbounds nuw %struct.RedisModuleCtx, ptr %17, i32 0, i32 2
  %19 = load ptr, ptr %18, align 8, !tbaa !106
  %20 = getelementptr inbounds nuw %struct.client, ptr %19, i32 0, i32 15
  %21 = load i32, ptr %20, align 8, !tbaa !149
  %22 = load i32, ptr %5, align 4, !tbaa !29
  %23 = icmp sle i32 %21, %22
  br i1 %23, label %24, label %25

24:                                               ; preds = %16, %13, %8, %2
  store i32 1, ptr %3, align 4
  br label %30

25:                                               ; preds = %16
  %26 = load ptr, ptr %4, align 8, !tbaa !13
  %27 = getelementptr inbounds nuw %struct.RedisModuleCtx, ptr %26, i32 0, i32 2
  %28 = load ptr, ptr %27, align 8, !tbaa !106
  %29 = load i32, ptr %5, align 4, !tbaa !29
  call void @redactClientCommandArgument(ptr noundef %28, i32 noundef %29)
  store i32 0, ptr %3, align 4
  br label %30

30:                                               ; preds = %25, %24
  %31 = load i32, ptr %3, align 4
  ret i32 %31
}