; Function Attrs: nounwind uwtable
define dso_local range(i32 0, 2) i32 @RM_RedactClientCommandArgument(ptr noundef readonly captures(address_is_null) %0, i32 noundef %1) #0 {
  %.not = icmp eq ptr %0, null
  br i1 %.not, label %12, label %3

3:                                                ; preds = %2
  %4 = getelementptr inbounds nuw i8, ptr %0, i64 16
  %5 = load ptr, ptr %4, align 8, !tbaa !95
  %6 = icmp eq ptr %5, null
  %7 = icmp slt i32 %1, 1
  %or.cond = or i1 %7, %6
  br i1 %or.cond, label %12, label %8

8:                                                ; preds = %3
  %9 = getelementptr inbounds nuw i8, ptr %5, i64 88
  %10 = load i32, ptr %9, align 8, !tbaa !140
  %.not11 = icmp sgt i32 %10, %1
  br i1 %.not11, label %11, label %12

11:                                               ; preds = %8
  tail call void @redactClientCommandArgument(ptr noundef nonnull %5, i32 noundef %1) #35
  br label %12

12:                                               ; preds = %2, %3, %8, %11
  %.0 = phi i32 [ 0, %11 ], [ 1, %8 ], [ 1, %3 ], [ 1, %2 ]
  ret i32 %.0
}